Microsoft (R) Macro Assembler Version 14.41.34120.0	    12/08/25 11:33:55
out.asm							     Page 1 - 1


				.586
				.model flat, stdcall
				includelib legacy_stdio_definitions.lib
				includelib msvcrtd.lib
				includelib vcruntimed.lib
				includelib ucrtd.lib
				includelib kernel32.lib
				includelib "..\RIA-2025\Debug\StaticLibrary.lib"
				ExitProcess PROTO:DWORD 
				.stack 4096


				 outlich PROTO : DWORD

				 outrad PROTO : DWORD

				 str_len PROTO : DWORD, : DWORD

 = str_len			 strlen EQU str_len

				 tostring PROTO : DWORD, : DWORD

				 atoii  PROTO : DWORD,  : DWORD

 00000000			.const
 00000000 0D 0A 00				newline byte 13, 10, 0
 00000003 00000002				var_LTRL1 sdword 2
 00000007 00000000				var_LTRL2 sdword 0
 0000000B 53 74 61 72 74			var_LTRL3 byte 'StartDemo', 0
	   44 65 6D 6F 00
 00000015 0000000A				var_LTRL4 sdword 10
 00000019 00000003				var_LTRL5 sdword 3
 0000001D 78 20 3D 20 31			var_LTRL6 byte 'x = 10, y = 3', 10, 0
	   30 2C 20 79 20
	   3D 20 33 0A 00
 0000002C 78 20 2B 20 79			var_LTRL7 byte 'x + y = ', 0
	   20 3D 20 00
 00000035 0A 00					var_LTRL8 byte 10, 0
 00000037 78 20 2D 20 79			var_LTRL9 byte 'x - y = ', 0
	   20 3D 20 00
 00000040 0A 00					var_LTRL10 byte 10, 0
 00000042 78 20 2A 20 79			var_LTRL11 byte 'x * y = ', 0
	   20 3D 20 00
 0000004B 0A 00					var_LTRL12 byte 10, 0
 0000004D 78 20 2F 20 79			var_LTRL13 byte 'x / y = ', 0
	   20 3D 20 00
 00000056 0A 00					var_LTRL14 byte 10, 0
 00000058 78 20 25 20 79			var_LTRL15 byte 'x % y = ', 0
	   20 3D 20 00
 00000061 0A 00					var_LTRL16 byte 10, 0
 00000063 42 69 74 77 69			var_LTRL17 byte 'Bitwise OR (x | y): ', 0
	   73 65 20 4F 52
	   20 28 78 20 7C
	   20 79 29 3A 20
	   00
 00000078 0A 00					var_LTRL18 byte 10, 0
 0000007A 42 69 74 77 69			var_LTRL19 byte 'Bitwise AND (x & y): ', 0
	   73 65 20 41 4E
	   44 20 28 78 20
	   26 20 79 29 3A
	   20 00
 00000090 0A 00					var_LTRL20 byte 10, 0
 00000092 42 69 74 77 69			var_LTRL21 byte 'Bitwise NOT (~vbn): ', 0
	   73 65 20 4E 4F
	   54 20 28 7E 76
	   62 6E 29 3A 20
	   00
 000000A7 0A 00					var_LTRL22 byte 10, 0
 000000A9 4C 6F 67 69 63			var_LTRL23 byte 'Logic & If:', 10, 0
	   20 26 20 49 66
	   3A 0A 00
 000000B6 00000000				var_LTRL24 sdword 0
 000000BA 46 6C 61 67 20			var_LTRL25 byte 'Flag is true.', 10, 0
	   69 73 20 74 72
	   75 65 2E 0A 00
 000000C9 78 20 69 73 20			var_LTRL26 byte 'x is not equal to y', 10, 0
	   6E 6F 74 20 65
	   71 75 61 6C 20
	   74 6F 20 79 0A
	   00
 000000DE 46 75 6E 63 74			var_LTRL27 byte 'Function & Bool:', 10, 0
	   69 6F 6E 20 26
	   20 42 6F 6F 6C
	   3A 0A 00
 000000F0 43 68 65 63 6B			var_LTRL28 byte 'Check if 4 is even: ', 0
	   20 69 66 20 34
	   20 69 73 20 65
	   76 65 6E 3A 20
	   00
 00000105 00000004				var_LTRL29 sdword 4
 00000109 59 65 73 0A 00			var_LTRL30 byte 'Yes', 10, 0
 0000010E 53 74 72 69 6E			var_LTRL31 byte 'Strings:', 10, 0
	   67 73 3A 0A 00
 00000118 48 65 6C 6C 6F			var_LTRL32 byte 'Hello', 9, 'World', 0
	   09 57 6F 72 6C
	   64 00
 00000124 53 74 72 69 6E			var_LTRL33 byte 'String with tab: ', 0
	   67 20 77 69 74
	   68 20 74 61 62
	   3A 20 00
 00000136 0A 00					var_LTRL34 byte 10, 0
 00000138 4C 65 6E 67 74			var_LTRL35 byte 'Length of string: ', 0
	   68 20 6F 66 20
	   73 74 72 69 6E
	   67 3A 20 00
 0000014B 0A 00					var_LTRL36 byte 10, 0
 0000014D 49 6E 74 20 74			var_LTRL37 byte 'Int to String: ', 0
	   6F 20 53 74 72
	   69 6E 67 3A 20
	   00
 0000015D 00003039				var_LTRL38 sdword 12345
 00000161 0A 00					var_LTRL39 byte 10, 0
 00000163 44 6F 2D 57 68			var_LTRL40 byte 'Do-While Loop:', 10, 0
	   69 6C 65 20 4C
	   6F 6F 70 3A 0A
	   00
 00000173 49 74 65 72 3A			var_LTRL41 byte 'Iter: ', 0
	   20 00
 0000017A 0A 00					var_LTRL42 byte 10, 0
 0000017C 00000001				var_LTRL43 sdword 1
 00000180 0A 00					var_LTRL44 byte 10, 0
 00000182 00000028				var_LTRL45 sdword 40
 00000186 0A 00					var_LTRL46 byte 10, 0
 00000188 0A 00					var_LTRL47 byte 10, 0
 0000018A 45 6E 64 20 6F			var_LTRL48 byte 'End of Demo', 10, 0
	   66 20 44 65 6D
	   6F 0A 00
 00000000			.data
 00000000 00000000				temp sdword ?
 00000004  00000100 [				buffer byte 256 dup(0)
	    00
	   ]
 00000104 00000000				var_sumres dword 0
 00000108 00000000				var_x dword 0
 0000010C 00000000				var_y dword 0
 00000110 00					var_varname byte 0
 00000111 00000000				var_s dword 0
 00000115 00000000				var_flag dword 0
 00000119 00					var_not_vbn byte 0
 0000011A 00					var_vbn byte 0
 0000011B 00000000				var_text dword 0
 0000011F 00					var_e byte 0
 00000120 00					var_o byte 0
 00000121 00					var_b byte 0
 00000122 00					var_u byte 0
 00000123 00					var_bit_or byte 0
 00000000			.code

				;----------- sum ------------
 00000000			sum PROC,
					var_suma : dword, var_sumb : dword  
				; --- save registers ---
 00000003  53			push ebx
 00000004  52			push edx
				; ----------------------
 00000005  FF 75 08		push var_suma
 00000008  FF 75 0C		push var_sumb
 0000000B  5B			pop ebx
 0000000C  58			pop eax
 0000000D  03 C3		add eax, ebx
 0000000F  50			push eax
 00000010  58			pop eax
 00000011  A3 00000104 R	mov var_sumres, eax

				; --- restore registers ---
 00000016  5A			pop edx
 00000017  5B			pop ebx
				; -------------------------
 00000018  A1 00000104 R	mov eax, var_sumres
				ret
 00000021			sum ENDP
				;------------------------------


				;----------- isEven ------------
 00000021			isEven PROC,
					var_isEvenv : dword  
				; --- save registers ---
 00000024  53			push ebx
 00000025  52			push edx
				; ----------------------
				; --- restore registers ---
 00000026  5A			pop edx
 00000027  5B			pop ebx
				; -------------------------
 00000028  8B 45 08		mov eax, var_isEvenv
				ret
 0000002F			isEven ENDP
				;------------------------------


				;----------- MAIN ------------
 0000002F			main PROC
 0000002F  68 0000000B R	push offset var_LTRL3
 00000034  E8 00000000 E	call outrad

 00000039  FF 35 00000015 R	push var_LTRL4
 0000003F  58			pop eax
 00000040  A3 00000108 R	mov var_x, eax

 00000045  FF 35 00000019 R	push var_LTRL5
 0000004B  58			pop eax
 0000004C  A3 0000010C R	mov var_y, eax

 00000051  68 0000001D R	push offset var_LTRL6
 00000056  E8 00000000 E	call outrad

 0000005B  68 0000002C R	push offset var_LTRL7
 00000060  E8 00000000 E	call outrad


 00000065  FF 35 0000010C R	push var_y
 0000006B  FF 35 00000108 R	push var_x
 00000071  E8 FFFFFF8A		call sum
 00000076  50			push eax
 00000077  E8 00000000 E	call outlich

 0000007C  68 00000035 R	push offset var_LTRL8
 00000081  E8 00000000 E	call outrad

 00000086  68 00000037 R	push offset var_LTRL9
 0000008B  E8 00000000 E	call outrad

 00000090  FF 35 00000108 R	push var_x
 00000096  FF 35 0000010C R	push var_y
 0000009C  5B			pop ebx
 0000009D  58			pop eax
 0000009E  2B C3		sub eax, ebx
 000000A0  50			push eax
 000000A1  E8 00000000 E	call outlich

 000000A6  68 00000040 R	push offset var_LTRL10
 000000AB  E8 00000000 E	call outrad

 000000B0  68 00000042 R	push offset var_LTRL11
 000000B5  E8 00000000 E	call outrad

 000000BA  FF 35 00000108 R	push var_x
 000000C0  FF 35 0000010C R	push var_y
 000000C6  5B			pop ebx
 000000C7  58			pop eax
 000000C8  0F AF C3		imul eax, ebx
 000000CB  50			push eax
 000000CC  E8 00000000 E	call outlich

 000000D1  68 0000004B R	push offset var_LTRL12
 000000D6  E8 00000000 E	call outrad

 000000DB  68 0000004D R	push offset var_LTRL13
 000000E0  E8 00000000 E	call outrad

 000000E5  FF 35 00000108 R	push var_x
 000000EB  FF 35 0000010C R	push var_y
 000000F1  5B			pop ebx
 000000F2  58			pop eax
 000000F3  99			cdq
 000000F4  F7 FB		idiv ebx
 000000F6  50			push eax
 000000F7  E8 00000000 E	call outlich

 000000FC  68 00000056 R	push offset var_LTRL14
 00000101  E8 00000000 E	call outrad

 00000106  68 00000058 R	push offset var_LTRL15
 0000010B  E8 00000000 E	call outrad

 00000110  FF 35 00000108 R	push var_x
 00000116  FF 35 0000010C R	push var_y
 0000011C  5B			pop ebx
 0000011D  58			pop eax
 0000011E  99			cdq
 0000011F  BA 00000000		mov edx,0
 00000124  F7 FB		idiv ebx
 00000126  52			push edx
 00000127  E8 00000000 E	call outlich

 0000012C  68 00000061 R	push offset var_LTRL16
 00000131  E8 00000000 E	call outrad

 00000136  68 00000063 R	push offset var_LTRL17
 0000013B  E8 00000000 E	call outrad

 00000140  FF 35 00000108 R	push var_x
 00000146  FF 35 0000010C R	push var_y
 0000014C  5B			pop ebx
 0000014D  58			pop eax
 0000014E  0B C3		or eax, ebx
 00000150  50			push eax
 00000151  E8 00000000 E	call outlich

 00000156  68 00000078 R	push offset var_LTRL18
 0000015B  E8 00000000 E	call outrad

 00000160  68 0000007A R	push offset var_LTRL19
 00000165  E8 00000000 E	call outrad

 0000016A  FF 35 00000108 R	push var_x
 00000170  FF 35 0000010C R	push var_y
 00000176  5B			pop ebx
 00000177  58			pop eax
 00000178  23 C3		and eax, ebx
 0000017A  50			push eax
 0000017B  E8 00000000 E	call outlich

 00000180  68 00000090 R	push offset var_LTRL20
 00000185  E8 00000000 E	call outrad

 0000018A  FF 35 00000019 R	push var_LTRL5
 00000190  58			pop eax
 00000191  A2 0000011A R	mov byte ptr [var_vbn], al

 00000196  0F B6 05		movzx eax, byte ptr [var_vbn]
	   0000011A R
 0000019D  50			push eax
 0000019E  58			pop eax
 0000019F  F7 D0		not eax
 000001A1  50			push eax
 000001A2  58			pop eax
 000001A3  A2 00000119 R	mov byte ptr [var_not_vbn], al

 000001A8  68 00000092 R	push offset var_LTRL21
 000001AD  E8 00000000 E	call outrad

 000001B2  0F B6 05		movzx eax, byte ptr [var_not_vbn]
	   00000119 R
 000001B9  50			push eax
 000001BA  E8 00000000 E	call outlich

 000001BF  68 000000A7 R	push offset var_LTRL22
 000001C4  E8 00000000 E	call outrad

 000001C9  68 000000A9 R	push offset var_LTRL23
 000001CE  E8 00000000 E	call outrad

 000001D3  FF 35 000000B6 R	push var_LTRL24
 000001D9  58			pop eax
 000001DA  A3 00000115 R	mov var_flag, eax

 000001DF  FF 35 00000115 R	push var_flag
 000001E5  58			pop eax
 000001E6  83 F8 00		cmp eax, 0
 000001E9  0F 94 C0		sete al
 000001EC  0F B6 C0		movzx eax, al
 000001EF  50			push eax
 000001F0  58			pop eax
 000001F1  83 F8 00		cmp eax, 0
 000001F4  74 0A		je lbl_if_end_1

 000001F6  68 000000BA R	push offset var_LTRL25
 000001FB  E8 00000000 E	call outrad

 00000200			lbl_if_end_1:

 00000200  FF 35 00000108 R	push var_x
 00000206  FF 35 0000010C R	push var_y
 0000020C  5B			pop ebx
 0000020D  58			pop eax
 0000020E  3B C3		cmp eax, ebx
 00000210  0F 95 C0		setne al
 00000213  0F B6 C0		movzx eax, al
 00000216  50			push eax
 00000217  58			pop eax
 00000218  83 F8 00		cmp eax, 0
 0000021B  74 0A		je lbl_if_end_2

 0000021D  68 000000C9 R	push offset var_LTRL26
 00000222  E8 00000000 E	call outrad

 00000227			lbl_if_end_2:

 00000227  68 000000DE R	push offset var_LTRL27
 0000022C  E8 00000000 E	call outrad

 00000231  68 000000F0 R	push offset var_LTRL28
 00000236  E8 00000000 E	call outrad


 0000023B  FF 35 00000105 R	push var_LTRL29
 00000241  E8 FFFFFDDB		call isEven
 00000246  50			push eax
 00000247  58			pop eax
 00000248  83 F8 00		cmp eax, 0
 0000024B  74 0A		je lbl_if_end_3

 0000024D  68 00000109 R	push offset var_LTRL30
 00000252  E8 00000000 E	call outrad

 00000257			lbl_if_end_3:

 00000257  68 0000010E R	push offset var_LTRL31
 0000025C  E8 00000000 E	call outrad

 00000261  68 00000118 R	push offset var_LTRL32
 00000266  58			pop eax
 00000267  A3 00000111 R	mov var_s, eax

 0000026C  68 00000124 R	push offset var_LTRL33
 00000271  E8 00000000 E	call outrad

 00000276  FF 35 00000111 R	push var_s
 0000027C  E8 00000000 E	call outrad

 00000281  68 00000136 R	push offset var_LTRL34
 00000286  E8 00000000 E	call outrad

 0000028B  68 00000138 R	push offset var_LTRL35
 00000290  E8 00000000 E	call outrad


 00000295  FF 35 00000111 R	push var_s
 0000029B  68 00000004 R	push offset buffer
 000002A0  E8 00000000 E	call strlen
 000002A5  50			push eax
 000002A6  E8 00000000 E	call outlich

 000002AB  68 0000014B R	push offset var_LTRL36
 000002B0  E8 00000000 E	call outrad

 000002B5  68 0000014D R	push offset var_LTRL37
 000002BA  E8 00000000 E	call outrad


 000002BF  FF 35 0000015D R	push var_LTRL38
 000002C5  68 00000004 R	push offset buffer
 000002CA  E8 00000000 E	call tostring
 000002CF  50			push eax
 000002D0  E8 00000000 E	call outrad

 000002D5  68 00000161 R	push offset var_LTRL39
 000002DA  E8 00000000 E	call outrad

 000002DF  68 00000163 R	push offset var_LTRL40
 000002E4  E8 00000000 E	call outrad

 000002E9  FF 35 00000007 R	push var_LTRL2
 000002EF  58			pop eax
 000002F0  A3 00000108 R	mov var_x, eax

 000002F5			lbl_do_4:

 000002F5  68 00000173 R	push offset var_LTRL41
 000002FA  E8 00000000 E	call outrad

 000002FF  FF 35 00000108 R	push var_x
 00000305  E8 00000000 E	call outlich

 0000030A  68 0000017A R	push offset var_LTRL42
 0000030F  E8 00000000 E	call outrad

 00000314  FF 35 00000108 R	push var_x
 0000031A  FF 35 0000017C R	push var_LTRL43
 00000320  5B			pop ebx
 00000321  58			pop eax
 00000322  03 C3		add eax, ebx
 00000324  50			push eax
 00000325  58			pop eax
 00000326  A3 00000108 R	mov var_x, eax

 0000032B  FF 35 00000108 R	push var_x
 00000331  FF 35 00000019 R	push var_LTRL5
 00000337  5B			pop ebx
 00000338  58			pop eax
 00000339  3B C3		cmp eax, ebx
 0000033B  0F 95 C0		setne al
 0000033E  0F B6 C0		movzx eax, al
 00000341  50			push eax
 00000342  58			pop eax
 00000343  83 F8 00		cmp eax, 0
 00000346  75 AD		jne lbl_do_4

 00000348  FF 35 00000007 R	push var_LTRL2
 0000034E  58			pop eax
 0000034F  A2 0000011F R	mov byte ptr [var_e], al

 00000354  FF 35 00000003 R	push var_LTRL1
 0000035A  0F B6 05		movzx eax, byte ptr [var_e]
	   0000011F R
 00000361  50			push eax
 00000362  5B			pop ebx
 00000363  58			pop eax
 00000364  03 C3		add eax, ebx
 00000366  50			push eax
 00000367  E8 00000000 E	call outlich

 0000036C  68 00000180 R	push offset var_LTRL44
 00000371  E8 00000000 E	call outrad

 00000376  FF 35 00000015 R	push var_LTRL4
 0000037C  58			pop eax
 0000037D  A2 00000120 R	mov byte ptr [var_o], al

 00000382  FF 35 00000182 R	push var_LTRL45
 00000388  58			pop eax
 00000389  A2 00000121 R	mov byte ptr [var_b], al

 0000038E  0F B6 05		movzx eax, byte ptr [var_o]
	   00000120 R
 00000395  50			push eax
 00000396  0F B6 05		movzx eax, byte ptr [var_b]
	   00000121 R
 0000039D  50			push eax
 0000039E  FF 35 00000003 R	push var_LTRL1
 000003A4  5B			pop ebx
 000003A5  58			pop eax
 000003A6  99			cdq
 000003A7  F7 FB		idiv ebx
 000003A9  50			push eax
 000003AA  5B			pop ebx
 000003AB  58			pop eax
 000003AC  03 C3		add eax, ebx
 000003AE  50			push eax
 000003AF  58			pop eax
 000003B0  A2 00000122 R	mov byte ptr [var_u], al

 000003B5  0F B6 05		movzx eax, byte ptr [var_u]
	   00000122 R
 000003BC  50			push eax
 000003BD  E8 00000000 E	call outlich

 000003C2  68 00000186 R	push offset var_LTRL46
 000003C7  E8 00000000 E	call outrad

 000003CC  0F B6 05		movzx eax, byte ptr [var_o]
	   00000120 R
 000003D3  50			push eax
 000003D4  0F B6 05		movzx eax, byte ptr [var_b]
	   00000121 R
 000003DB  50			push eax
 000003DC  5B			pop ebx
 000003DD  58			pop eax
 000003DE  0B C3		or eax, ebx
 000003E0  50			push eax
 000003E1  58			pop eax
 000003E2  A2 00000123 R	mov byte ptr [var_bit_or], al

 000003E7  0F B6 05		movzx eax, byte ptr [var_bit_or]
	   00000123 R
 000003EE  50			push eax
 000003EF  E8 00000000 E	call outlich

 000003F4  68 00000188 R	push offset var_LTRL47
 000003F9  E8 00000000 E	call outrad

 000003FE  68 0000018A R	push offset var_LTRL48
 00000403  E8 00000000 E	call outrad


 00000408  C3			ret
 00000409  6A 00		push 0
 0000040B  E8 00000000 E	call ExitProcess
 00000410			main ENDP
				end main
Microsoft (R) Macro Assembler Version 14.41.34120.0	    12/08/25 11:33:55
out.asm							     Symbols 2 - 1




Segments and Groups:

                N a m e                 Size     Length   Align   Combine Class

CONST  . . . . . . . . . . . . .	32 Bit	 00000197 Para	  Public  'CONST'	 ReadOnly
FLAT . . . . . . . . . . . . . .	GROUP
STACK  . . . . . . . . . . . . .	32 Bit	 00001000 Para	  Stack	  'STACK'	 
_DATA  . . . . . . . . . . . . .	32 Bit	 00000124 Para	  Public  'DATA'	
_TEXT  . . . . . . . . . . . . .	32 Bit	 00000410 Para	  Public  'CODE'	


Procedures, parameters, and locals:

                N a m e                 Type     Value    Attr

ExitProcess  . . . . . . . . . .	P Near	 00000000 FLAT	Length= 00000000 External STDCALL
atoii  . . . . . . . . . . . . .	P Near	 00000000 FLAT	Length= 00000000 External STDCALL
isEven . . . . . . . . . . . . .	P Near	 00000021 _TEXT	Length= 0000000E Public STDCALL
  var_isEvenv  . . . . . . . . .	DWord	 bp + 00000008
main . . . . . . . . . . . . . .	P Near	 0000002F _TEXT	Length= 000003E1 Public STDCALL
  lbl_if_end_1 . . . . . . . . .	L Near	 00000200 _TEXT	
  lbl_if_end_2 . . . . . . . . .	L Near	 00000227 _TEXT	
  lbl_if_end_3 . . . . . . . . .	L Near	 00000257 _TEXT	
  lbl_do_4 . . . . . . . . . . .	L Near	 000002F5 _TEXT	
outlich  . . . . . . . . . . . .	P Near	 00000000 FLAT	Length= 00000000 External STDCALL
outrad . . . . . . . . . . . . .	P Near	 00000000 FLAT	Length= 00000000 External STDCALL
str_len  . . . . . . . . . . . .	P Near	 00000000 FLAT	Length= 00000000 External STDCALL
sum  . . . . . . . . . . . . . .	P Near	 00000000 _TEXT	Length= 00000021 Public STDCALL
  var_suma . . . . . . . . . . .	DWord	 bp + 00000008
  var_sumb . . . . . . . . . . .	DWord	 bp + 0000000C
tostring . . . . . . . . . . . .	P Near	 00000000 FLAT	Length= 00000000 External STDCALL


Symbols:

                N a m e                 Type     Value    Attr

@CodeSize  . . . . . . . . . . .	Number	 00000000h   
@DataSize  . . . . . . . . . . .	Number	 00000000h   
@Interface . . . . . . . . . . .	Number	 00000003h   
@Model . . . . . . . . . . . . .	Number	 00000007h   
@code  . . . . . . . . . . . . .	Text   	 _TEXT
@data  . . . . . . . . . . . . .	Text   	 FLAT
@fardata?  . . . . . . . . . . .	Text   	 FLAT
@fardata . . . . . . . . . . . .	Text   	 FLAT
@stack . . . . . . . . . . . . .	Text   	 FLAT
buffer . . . . . . . . . . . . .	Byte	 00000004 _DATA	
newline  . . . . . . . . . . . .	Byte	 00000000 CONST	
strlen . . . . . . . . . . . . .	Text   	 str_len
temp . . . . . . . . . . . . . .	DWord	 00000000 _DATA	
var_LTRL10 . . . . . . . . . . .	Byte	 00000040 CONST	
var_LTRL11 . . . . . . . . . . .	Byte	 00000042 CONST	
var_LTRL12 . . . . . . . . . . .	Byte	 0000004B CONST	
var_LTRL13 . . . . . . . . . . .	Byte	 0000004D CONST	
var_LTRL14 . . . . . . . . . . .	Byte	 00000056 CONST	
var_LTRL15 . . . . . . . . . . .	Byte	 00000058 CONST	
var_LTRL16 . . . . . . . . . . .	Byte	 00000061 CONST	
var_LTRL17 . . . . . . . . . . .	Byte	 00000063 CONST	
var_LTRL18 . . . . . . . . . . .	Byte	 00000078 CONST	
var_LTRL19 . . . . . . . . . . .	Byte	 0000007A CONST	
var_LTRL1  . . . . . . . . . . .	DWord	 00000003 CONST	
var_LTRL20 . . . . . . . . . . .	Byte	 00000090 CONST	
var_LTRL21 . . . . . . . . . . .	Byte	 00000092 CONST	
var_LTRL22 . . . . . . . . . . .	Byte	 000000A7 CONST	
var_LTRL23 . . . . . . . . . . .	Byte	 000000A9 CONST	
var_LTRL24 . . . . . . . . . . .	DWord	 000000B6 CONST	
var_LTRL25 . . . . . . . . . . .	Byte	 000000BA CONST	
var_LTRL26 . . . . . . . . . . .	Byte	 000000C9 CONST	
var_LTRL27 . . . . . . . . . . .	Byte	 000000DE CONST	
var_LTRL28 . . . . . . . . . . .	Byte	 000000F0 CONST	
var_LTRL29 . . . . . . . . . . .	DWord	 00000105 CONST	
var_LTRL2  . . . . . . . . . . .	DWord	 00000007 CONST	
var_LTRL30 . . . . . . . . . . .	Byte	 00000109 CONST	
var_LTRL31 . . . . . . . . . . .	Byte	 0000010E CONST	
var_LTRL32 . . . . . . . . . . .	Byte	 00000118 CONST	
var_LTRL33 . . . . . . . . . . .	Byte	 00000124 CONST	
var_LTRL34 . . . . . . . . . . .	Byte	 00000136 CONST	
var_LTRL35 . . . . . . . . . . .	Byte	 00000138 CONST	
var_LTRL36 . . . . . . . . . . .	Byte	 0000014B CONST	
var_LTRL37 . . . . . . . . . . .	Byte	 0000014D CONST	
var_LTRL38 . . . . . . . . . . .	DWord	 0000015D CONST	
var_LTRL39 . . . . . . . . . . .	Byte	 00000161 CONST	
var_LTRL3  . . . . . . . . . . .	Byte	 0000000B CONST	
var_LTRL40 . . . . . . . . . . .	Byte	 00000163 CONST	
var_LTRL41 . . . . . . . . . . .	Byte	 00000173 CONST	
var_LTRL42 . . . . . . . . . . .	Byte	 0000017A CONST	
var_LTRL43 . . . . . . . . . . .	DWord	 0000017C CONST	
var_LTRL44 . . . . . . . . . . .	Byte	 00000180 CONST	
var_LTRL45 . . . . . . . . . . .	DWord	 00000182 CONST	
var_LTRL46 . . . . . . . . . . .	Byte	 00000186 CONST	
var_LTRL47 . . . . . . . . . . .	Byte	 00000188 CONST	
var_LTRL48 . . . . . . . . . . .	Byte	 0000018A CONST	
var_LTRL4  . . . . . . . . . . .	DWord	 00000015 CONST	
var_LTRL5  . . . . . . . . . . .	DWord	 00000019 CONST	
var_LTRL6  . . . . . . . . . . .	Byte	 0000001D CONST	
var_LTRL7  . . . . . . . . . . .	Byte	 0000002C CONST	
var_LTRL8  . . . . . . . . . . .	Byte	 00000035 CONST	
var_LTRL9  . . . . . . . . . . .	Byte	 00000037 CONST	
var_bit_or . . . . . . . . . . .	Byte	 00000123 _DATA	
var_b  . . . . . . . . . . . . .	Byte	 00000121 _DATA	
var_e  . . . . . . . . . . . . .	Byte	 0000011F _DATA	
var_flag . . . . . . . . . . . .	DWord	 00000115 _DATA	
var_not_vbn  . . . . . . . . . .	Byte	 00000119 _DATA	
var_o  . . . . . . . . . . . . .	Byte	 00000120 _DATA	
var_sumres . . . . . . . . . . .	DWord	 00000104 _DATA	
var_s  . . . . . . . . . . . . .	DWord	 00000111 _DATA	
var_text . . . . . . . . . . . .	DWord	 0000011B _DATA	
var_u  . . . . . . . . . . . . .	Byte	 00000122 _DATA	
var_varname  . . . . . . . . . .	Byte	 00000110 _DATA	
var_vbn  . . . . . . . . . . . .	Byte	 0000011A _DATA	
var_x  . . . . . . . . . . . . .	DWord	 00000108 _DATA	
var_y  . . . . . . . . . . . . .	DWord	 0000010C _DATA	

	   0 Warnings
	   0 Errors
